target datalayout = "e-m:e-p270:32:32-p271:32:32-p272:64:64-i64:64-i128:128-f80:128-n8:16:32:64-S128"
target triple = "x86_64-pc-linux-gnu"

%class.btVector3 = type { [4 x float] }
%class.btConvexHullShape = type { %class.btPolyhedralConvexAabbCachingShape.base, [7 x i8], %class.btAlignedObjectArray }
%class.btPolyhedralConvexAabbCachingShape.base = type <{ %class.btPolyhedralConvexShape, %class.btVector3, %class.btVector3, i8 }>
%class.btPolyhedralConvexShape = type { %class.btConvexInternalShape, ptr }
%class.btConvexInternalShape = type { %class.btConvexShape, %class.btVector3, %class.btVector3, float, float }
%class.btConvexShape = type { %class.btCollisionShape }
%class.btCollisionShape = type { ptr, i32, ptr, i32, i32 }
%class.btAlignedObjectArray = type <{ [4 x i8], i32, i32, [4 x i8], ptr, i8, [7 x i8] }>

; Function Attrs: inlinehint mustprogress nounwind uwtable
define linkonce_odr dso_local noundef float @_ZNK9btVector33dotERKS_(ptr noundef nonnull align 4 dereferenceable(16) %0, ptr noundef nonnull align 4 dereferenceable(16) %1) #6 comdat align 2 {
  %3 = alloca ptr, align 8
  %4 = alloca ptr, align 8
  store ptr %0, ptr %3, align 8, !tbaa !27
  store ptr %1, ptr %4, align 8, !tbaa !27
  %5 = load ptr, ptr %3, align 8
  %6 = getelementptr inbounds nuw %class.btVector3, ptr %5, i32 0, i32 0
  %7 = getelementptr inbounds [4 x float], ptr %6, i64 0, i64 0
  %8 = load float, ptr %7, align 4, !tbaa !36
  %9 = load ptr, ptr %4, align 8, !tbaa !27
  %10 = getelementptr inbounds nuw %class.btVector3, ptr %9, i32 0, i32 0
  %11 = getelementptr inbounds [4 x float], ptr %10, i64 0, i64 0
  %12 = load float, ptr %11, align 4, !tbaa !36
  %13 = getelementptr inbounds nuw %class.btVector3, ptr %5, i32 0, i32 0
  %14 = getelementptr inbounds [4 x float], ptr %13, i64 0, i64 1
  %15 = load float, ptr %14, align 4, !tbaa !36
  %16 = load ptr, ptr %4, align 8, !tbaa !27
  %17 = getelementptr inbounds nuw %class.btVector3, ptr %16, i32 0, i32 0
  %18 = getelementptr inbounds [4 x float], ptr %17, i64 0, i64 1
  %19 = load float, ptr %18, align 4, !tbaa !36
  %20 = fmul float %15, %19
  %21 = call float @llvm.fmuladd.f32(float %8, float %12, float %20)
  %22 = getelementptr inbounds nuw %class.btVector3, ptr %5, i32 0, i32 0
  %23 = getelementptr inbounds [4 x float], ptr %22, i64 0, i64 2
  %24 = load float, ptr %23, align 4, !tbaa !36
  %25 = load ptr, ptr %4, align 8, !tbaa !27
  %26 = getelementptr inbounds nuw %class.btVector3, ptr %25, i32 0, i32 0
  %27 = getelementptr inbounds [4 x float], ptr %26, i64 0, i64 2
  %28 = load float, ptr %27, align 4, !tbaa !36
  %29 = call float @llvm.fmuladd.f32(float %24, float %28, float %21)
  ret float %29
}

; Function Attrs: inlinehint mustprogress nounwind uwtable
define linkonce_odr dso_local void @_ZN9btVector3C2ERKfS1_S1_(ptr noundef nonnull align 4 dereferenceable(16) %0, ptr noundef nonnull align 4 dereferenceable(4) %1, ptr noundef nonnull align 4 dereferenceable(4) %2, ptr noundef nonnull align 4 dereferenceable(4) %3) unnamed_addr #6 comdat align 2 {
  %5 = alloca ptr, align 8
  %6 = alloca ptr, align 8
  %7 = alloca ptr, align 8
  %8 = alloca ptr, align 8
  store ptr %0, ptr %5, align 8, !tbaa !27
  store ptr %1, ptr %6, align 8, !tbaa !14
  store ptr %2, ptr %7, align 8, !tbaa !14
  store ptr %3, ptr %8, align 8, !tbaa !14
  %9 = load ptr, ptr %5, align 8
  %10 = load ptr, ptr %6, align 8, !tbaa !14
  %11 = load float, ptr %10, align 4, !tbaa !36
  %12 = getelementptr inbounds nuw %class.btVector3, ptr %9, i32 0, i32 0
  %13 = getelementptr inbounds [4 x float], ptr %12, i64 0, i64 0
  store float %11, ptr %13, align 4, !tbaa !36
  %14 = load ptr, ptr %7, align 8, !tbaa !14
  %15 = load float, ptr %14, align 4, !tbaa !36
  %16 = getelementptr inbounds nuw %class.btVector3, ptr %9, i32 0, i32 0
  %17 = getelementptr inbounds [4 x float], ptr %16, i64 0, i64 1
  store float %15, ptr %17, align 4, !tbaa !36
  %18 = load ptr, ptr %8, align 8, !tbaa !14
  %19 = load float, ptr %18, align 4, !tbaa !36
  %20 = getelementptr inbounds nuw %class.btVector3, ptr %9, i32 0, i32 0
  %21 = getelementptr inbounds [4 x float], ptr %20, i64 0, i64 2
  store float %19, ptr %21, align 4, !tbaa !36
  %22 = getelementptr inbounds nuw %class.btVector3, ptr %9, i32 0, i32 0
  %23 = getelementptr inbounds [4 x float], ptr %22, i64 0, i64 3
  store float 0.000000e+00, ptr %23, align 4, !tbaa !36
  ret void
}

; Function Attrs: inlinehint mustprogress uwtable
define linkonce_odr dso_local { <2 x float>, <2 x float> } @_ZNK17btConvexHullShape14getScaledPointEi(ptr noundef nonnull align 8 dereferenceable(152) %0, i32 noundef %1) #10 comdat align 2 {
  %3 = alloca %class.btVector3, align 4
  %4 = alloca ptr, align 8
  %5 = alloca i32, align 4
  store ptr %0, ptr %4, align 8, !tbaa !12
  store i32 %1, ptr %5, align 4, !tbaa !9
  %6 = load ptr, ptr %4, align 8
  %7 = getelementptr inbounds nuw %class.btConvexHullShape, ptr %6, i32 0, i32 2
  %8 = load i32, ptr %5, align 4, !tbaa !9
  %9 = call noundef nonnull align 4 dereferenceable(16) ptr @_ZNK20btAlignedObjectArrayI9btVector3EixEi(ptr noundef nonnull align 8 dereferenceable(25) %7, i32 noundef %8)
  %10 = getelementptr inbounds nuw %class.btConvexInternalShape, ptr %6, i32 0, i32 1
  %11 = call { <2 x float>, <2 x float> } @_ZmlRK9btVector3S1_(ptr noundef nonnull align 4 dereferenceable(16) %9, ptr noundef nonnull align 4 dereferenceable(16) %10)
  %12 = getelementptr inbounds nuw %class.btVector3, ptr %3, i32 0, i32 0
  %13 = getelementptr inbounds nuw { <2 x float>, <2 x float> }, ptr %12, i32 0, i32 0
  %14 = extractvalue { <2 x float>, <2 x float> } %11, 0
  store <2 x float> %14, ptr %13, align 4
  %15 = getelementptr inbounds nuw { <2 x float>, <2 x float> }, ptr %12, i32 0, i32 1
  %16 = extractvalue { <2 x float>, <2 x float> } %11, 1
  store <2 x float> %16, ptr %15, align 4
  %17 = getelementptr inbounds nuw %class.btVector3, ptr %3, i32 0, i32 0
  %18 = load { <2 x float>, <2 x float> }, ptr %17, align 4
  ret { <2 x float>, <2 x float> } %18
}

; Function Attrs: inlinehint mustprogress uwtable
define linkonce_odr dso_local noundef i64 @_ZNK9btVector36maxDotEPKS_lRf(ptr noundef nonnull align 4 dereferenceable(16) %0, ptr noundef %1, i64 noundef %2, ptr noundef nonnull align 4 dereferenceable(4) %3) #4 comdat align 2 {
  %5 = alloca ptr, align 8
  %6 = alloca ptr, align 8
  %7 = alloca i64, align 8
  %8 = alloca ptr, align 8
  %9 = alloca float, align 4
  %10 = alloca i32, align 4
  %11 = alloca i32, align 4
  %12 = alloca float, align 4
  store ptr %0, ptr %5, align 8, !tbaa !27
  store ptr %1, ptr %6, align 8, !tbaa !27
  store i64 %2, ptr %7, align 8, !tbaa !41
  store ptr %3, ptr %8, align 8, !tbaa !14
  %13 = load ptr, ptr %5, align 8
  call void @llvm.lifetime.start.p0(i64 4, ptr %9) #14
  store float 0xC7EFFFFFE0000000, ptr %9, align 4, !tbaa !36
  call void @llvm.lifetime.start.p0(i64 4, ptr %10) #14
  store i32 0, ptr %10, align 4, !tbaa !9
  call void @llvm.lifetime.start.p0(i64 4, ptr %11) #14
  store i32 -1, ptr %11, align 4, !tbaa !9
  store i32 0, ptr %10, align 4, !tbaa !9
  br label %14

14:                                               ; preds = %32, %4
  %15 = load i32, ptr %10, align 4, !tbaa !9
  %16 = sext i32 %15 to i64
  %17 = load i64, ptr %7, align 8, !tbaa !41
  %18 = icmp slt i64 %16, %17
  br i1 %18, label %19, label %35

19:                                               ; preds = %14
  call void @llvm.lifetime.start.p0(i64 4, ptr %12) #14
  %20 = load ptr, ptr %6, align 8, !tbaa !27
  %21 = load i32, ptr %10, align 4, !tbaa !9
  %22 = sext i32 %21 to i64
  %23 = getelementptr inbounds %class.btVector3, ptr %20, i64 %22
  %24 = call noundef float @_ZNK9btVector33dotERKS_(ptr noundef nonnull align 4 dereferenceable(16) %23, ptr noundef nonnull align 4 dereferenceable(16) %13)
  store float %24, ptr %12, align 4, !tbaa !36
  %25 = load float, ptr %12, align 4, !tbaa !36
  %26 = load float, ptr %9, align 4, !tbaa !36
  %27 = fcmp ogt float %25, %26
  br i1 %27, label %28, label %31

28:                                               ; preds = %19
  %29 = load float, ptr %12, align 4, !tbaa !36
  store float %29, ptr %9, align 4, !tbaa !36
  %30 = load i32, ptr %10, align 4, !tbaa !9
  store i32 %30, ptr %11, align 4, !tbaa !9
  br label %31

31:                                               ; preds = %28, %19
  call void @llvm.lifetime.end.p0(i64 4, ptr %12) #14
  br label %32

32:                                               ; preds = %31
  %33 = load i32, ptr %10, align 4, !tbaa !9
  %34 = add nsw i32 %33, 1
  store i32 %34, ptr %10, align 4, !tbaa !9
  br label %14, !llvm.loop !43

35:                                               ; preds = %14
  %36 = load float, ptr %9, align 4, !tbaa !36
  %37 = load ptr, ptr %8, align 8, !tbaa !14
  store float %36, ptr %37, align 4, !tbaa !36
  %38 = load i32, ptr %11, align 4, !tbaa !9
  %39 = sext i32 %38 to i64
  call void @llvm.lifetime.end.p0(i64 4, ptr %11) #14
  call void @llvm.lifetime.end.p0(i64 4, ptr %10) #14
  call void @llvm.lifetime.end.p0(i64 4, ptr %9) #14
  ret i64 %39
}

; Function Attrs: inlinehint mustprogress nounwind uwtable
define linkonce_odr dso_local noundef nonnull align 4 dereferenceable(16) ptr @_ZNK20btAlignedObjectArrayI9btVector3EixEi(ptr noundef nonnull align 8 dereferenceable(25) %0, i32 noundef %1) #6 comdat align 2 {
  %3 = alloca ptr, align 8
  %4 = alloca i32, align 4
  store ptr %0, ptr %3, align 8, !tbaa !25
  store i32 %1, ptr %4, align 4, !tbaa !9
  %5 = load ptr, ptr %3, align 8
  %6 = getelementptr inbounds nuw %class.btAlignedObjectArray, ptr %5, i32 0, i32 4
  %7 = load ptr, ptr %6, align 8, !tbaa !30
  %8 = load i32, ptr %4, align 4, !tbaa !9
  %9 = sext i32 %8 to i64
  %10 = getelementptr inbounds %class.btVector3, ptr %7, i64 %9
  ret ptr %10
}

; Function Attrs: inlinehint mustprogress nounwind uwtable
define linkonce_odr dso_local noundef i32 @_ZNK20btAlignedObjectArrayI9btVector3E4sizeEv(ptr noundef nonnull align 8 dereferenceable(25) %0) #6 comdat align 2 {
  %2 = alloca ptr, align 8
  store ptr %0, ptr %2, align 8, !tbaa !25
  %3 = load ptr, ptr %2, align 8
  %4 = getelementptr inbounds nuw %class.btAlignedObjectArray, ptr %3, i32 0, i32 1
  %5 = load i32, ptr %4, align 4, !tbaa !35
  ret i32 %5
}

; Function Attrs: inlinehint mustprogress uwtable
define linkonce_odr dso_local { <2 x float>, <2 x float> } @_ZmlRK9btVector3S1_(ptr noundef nonnull align 4 dereferenceable(16) %0, ptr noundef nonnull align 4 dereferenceable(16) %1) #4 comdat {
  %3 = alloca %class.btVector3, align 4
  %4 = alloca ptr, align 8
  %5 = alloca ptr, align 8
  %6 = alloca float, align 4
  %7 = alloca float, align 4
  %8 = alloca float, align 4
  store ptr %0, ptr %4, align 8, !tbaa !27
  store ptr %1, ptr %5, align 8, !tbaa !27
  call void @llvm.lifetime.start.p0(i64 4, ptr %6) #14
  %9 = load ptr, ptr %4, align 8, !tbaa !27
  %10 = getelementptr inbounds nuw %class.btVector3, ptr %9, i32 0, i32 0
  %11 = getelementptr inbounds [4 x float], ptr %10, i64 0, i64 0
  %12 = load float, ptr %11, align 4, !tbaa !36
  %13 = load ptr, ptr %5, align 8, !tbaa !27
  %14 = getelementptr inbounds nuw %class.btVector3, ptr %13, i32 0, i32 0
  %15 = getelementptr inbounds [4 x float], ptr %14, i64 0, i64 0
  %16 = load float, ptr %15, align 4, !tbaa !36
  %17 = fmul float %12, %16
  store float %17, ptr %6, align 4, !tbaa !36
  call void @llvm.lifetime.start.p0(i64 4, ptr %7) #14
  %18 = load ptr, ptr %4, align 8, !tbaa !27
  %19 = getelementptr inbounds nuw %class.btVector3, ptr %18, i32 0, i32 0
  %20 = getelementptr inbounds [4 x float], ptr %19, i64 0, i64 1
  %21 = load float, ptr %20, align 4, !tbaa !36
  %22 = load ptr, ptr %5, align 8, !tbaa !27
  %23 = getelementptr inbounds nuw %class.btVector3, ptr %22, i32 0, i32 0
  %24 = getelementptr inbounds [4 x float], ptr %23, i64 0, i64 1
  %25 = load float, ptr %24, align 4, !tbaa !36
  %26 = fmul float %21, %25
  store float %26, ptr %7, align 4, !tbaa !36
  call void @llvm.lifetime.start.p0(i64 4, ptr %8) #14
  %27 = load ptr, ptr %4, align 8, !tbaa !27
  %28 = getelementptr inbounds nuw %class.btVector3, ptr %27, i32 0, i32 0
  %29 = getelementptr inbounds [4 x float], ptr %28, i64 0, i64 2
  %30 = load float, ptr %29, align 4, !tbaa !36
  %31 = load ptr, ptr %5, align 8, !tbaa !27
  %32 = getelementptr inbounds nuw %class.btVector3, ptr %31, i32 0, i32 0
  %33 = getelementptr inbounds [4 x float], ptr %32, i64 0, i64 2
  %34 = load float, ptr %33, align 4, !tbaa !36
  %35 = fmul float %30, %34
  store float %35, ptr %8, align 4, !tbaa !36
  call void @_ZN9btVector3C2ERKfS1_S1_(ptr noundef nonnull align 4 dereferenceable(16) %3, ptr noundef nonnull align 4 dereferenceable(4) %6, ptr noundef nonnull align 4 dereferenceable(4) %7, ptr noundef nonnull align 4 dereferenceable(4) %8)
  call void @llvm.lifetime.end.p0(i64 4, ptr %8) #14
  call void @llvm.lifetime.end.p0(i64 4, ptr %7) #14
  call void @llvm.lifetime.end.p0(i64 4, ptr %6) #14
  %36 = getelementptr inbounds nuw %class.btVector3, ptr %3, i32 0, i32 0
  %37 = load { <2 x float>, <2 x float> }, ptr %36, align 4
  ret { <2 x float>, <2 x float> } %37
}

; Function Attrs: inlinehint mustprogress nounwind uwtable
define linkonce_odr dso_local noundef ptr @_ZN9btVector3cvPfEv(ptr noundef nonnull align 4 dereferenceable(16) %0) #6 comdat align 2 {
  %2 = alloca ptr, align 8
  store ptr %0, ptr %2, align 8, !tbaa !27
  %3 = load ptr, ptr %2, align 8
  %4 = getelementptr inbounds nuw %class.btVector3, ptr %3, i32 0, i32 0
  %5 = getelementptr inbounds [4 x float], ptr %4, i64 0, i64 0
  ret ptr %5
}

; Function Attrs: mustprogress uwtable
define dso_local void @_ZNK17btConvexHullShape49batchedUnitVectorGetSupportingVertexWithoutMarginEPK9btVector3PS0_i(ptr noundef nonnull align 8 dereferenceable(152) %0, ptr noundef %1, ptr noundef %2, i32 noundef %3) unnamed_addr #9 align 2 {
  %5 = alloca ptr, align 8
  %6 = alloca ptr, align 8
  %7 = alloca ptr, align 8
  %8 = alloca i32, align 4
  %9 = alloca float, align 4
  %10 = alloca i32, align 4
  %11 = alloca i32, align 4
  %12 = alloca %class.btVector3, align 4
  %13 = alloca i32, align 4
  %14 = alloca %class.btVector3, align 4
  store ptr %0, ptr %5, align 8, !tbaa !12
  store ptr %1, ptr %6, align 8, !tbaa !27
  store ptr %2, ptr %7, align 8, !tbaa !27
  store i32 %3, ptr %8, align 4, !tbaa !9
  %15 = load ptr, ptr %5, align 8
  call void @llvm.lifetime.start.p0(i64 4, ptr %9) #14
  call void @llvm.lifetime.start.p0(i64 4, ptr %10) #14
  store i32 0, ptr %10, align 4, !tbaa !9
  br label %16

16:                                               ; preds = %28, %4
  %17 = load i32, ptr %10, align 4, !tbaa !9
  %18 = load i32, ptr %8, align 4, !tbaa !9
  %19 = icmp slt i32 %17, %18
  br i1 %19, label %21, label %20

20:                                               ; preds = %16
  call void @llvm.lifetime.end.p0(i64 4, ptr %10) #14
  br label %31

21:                                               ; preds = %16
  %22 = load ptr, ptr %7, align 8, !tbaa !27
  %23 = load i32, ptr %10, align 4, !tbaa !9
  %24 = sext i32 %23 to i64
  %25 = getelementptr inbounds %class.btVector3, ptr %22, i64 %24
  %26 = call noundef ptr @_ZN9btVector3cvPfEv(ptr noundef nonnull align 4 dereferenceable(16) %25)
  %27 = getelementptr inbounds float, ptr %26, i64 3
  store float 0xC3ABC16D60000000, ptr %27, align 4, !tbaa !36
  br label %28

28:                                               ; preds = %21
  %29 = load i32, ptr %10, align 4, !tbaa !9
  %30 = add nsw i32 %29, 1
  store i32 %30, ptr %10, align 4, !tbaa !9
  br label %16, !llvm.loop !44

31:                                               ; preds = %20
  call void @llvm.lifetime.start.p0(i64 4, ptr %11) #14
  store i32 0, ptr %11, align 4, !tbaa !9
  br label %32

32:                                               ; preds = %86, %31
  %33 = load i32, ptr %11, align 4, !tbaa !9
  %34 = load i32, ptr %8, align 4, !tbaa !9
  %35 = icmp slt i32 %33, %34
  br i1 %35, label %37, label %36

36:                                               ; preds = %32
  call void @llvm.lifetime.end.p0(i64 4, ptr %11) #14
  br label %89

37:                                               ; preds = %32
  call void @llvm.lifetime.start.p0(i64 16, ptr %12) #14
  %38 = load ptr, ptr %6, align 8, !tbaa !27
  %39 = load i32, ptr %11, align 4, !tbaa !9
  %40 = sext i32 %39 to i64
  %41 = getelementptr inbounds %class.btVector3, ptr %38, i64 %40
  %42 = getelementptr inbounds nuw %class.btConvexInternalShape, ptr %15, i32 0, i32 1
  %43 = call { <2 x float>, <2 x float> } @_ZmlRK9btVector3S1_(ptr noundef nonnull align 4 dereferenceable(16) %41, ptr noundef nonnull align 4 dereferenceable(16) %42)
  %44 = getelementptr inbounds nuw %class.btVector3, ptr %12, i32 0, i32 0
  %45 = getelementptr inbounds nuw { <2 x float>, <2 x float> }, ptr %44, i32 0, i32 0
  %46 = extractvalue { <2 x float>, <2 x float> } %43, 0
  store <2 x float> %46, ptr %45, align 4
  %47 = getelementptr inbounds nuw { <2 x float>, <2 x float> }, ptr %44, i32 0, i32 1
  %48 = extractvalue { <2 x float>, <2 x float> } %43, 1
  store <2 x float> %48, ptr %47, align 4
  %49 = getelementptr inbounds nuw %class.btConvexHullShape, ptr %15, i32 0, i32 2
  %50 = call noundef i32 @_ZNK20btAlignedObjectArrayI9btVector3E4sizeEv(ptr noundef nonnull align 8 dereferenceable(25) %49)
  %51 = icmp slt i32 0, %50
  br i1 %51, label %52, label %78

52:                                               ; preds = %37
  call void @llvm.lifetime.start.p0(i64 4, ptr %13) #14
  %53 = getelementptr inbounds nuw %class.btConvexHullShape, ptr %15, i32 0, i32 2
  %54 = call noundef nonnull align 4 dereferenceable(16) ptr @_ZNK20btAlignedObjectArrayI9btVector3EixEi(ptr noundef nonnull align 8 dereferenceable(25) %53, i32 noundef 0)
  %55 = getelementptr inbounds nuw %class.btConvexHullShape, ptr %15, i32 0, i32 2
  %56 = call noundef i32 @_ZNK20btAlignedObjectArrayI9btVector3E4sizeEv(ptr noundef nonnull align 8 dereferenceable(25) %55)
  %57 = sext i32 %56 to i64
  %58 = call noundef i64 @_ZNK9btVector36maxDotEPKS_lRf(ptr noundef nonnull align 4 dereferenceable(16) %12, ptr noundef %54, i64 noundef %57, ptr noundef nonnull align 4 dereferenceable(4) %9)
  %59 = trunc i64 %58 to i32
  store i32 %59, ptr %13, align 4, !tbaa !9
  call void @llvm.lifetime.start.p0(i64 16, ptr %14) #14
  %60 = load i32, ptr %13, align 4, !tbaa !9
  %61 = call { <2 x float>, <2 x float> } @_ZNK17btConvexHullShape14getScaledPointEi(ptr noundef nonnull align 8 dereferenceable(152) %15, i32 noundef %60)
  %62 = getelementptr inbounds nuw %class.btVector3, ptr %14, i32 0, i32 0
  %63 = getelementptr inbounds nuw { <2 x float>, <2 x float> }, ptr %62, i32 0, i32 0
  %64 = extractvalue { <2 x float>, <2 x float> } %61, 0
  store <2 x float> %64, ptr %63, align 4
  %65 = getelementptr inbounds nuw { <2 x float>, <2 x float> }, ptr %62, i32 0, i32 1
  %66 = extractvalue { <2 x float>, <2 x float> } %61, 1
  store <2 x float> %66, ptr %65, align 4
  %67 = load ptr, ptr %7, align 8, !tbaa !27
  %68 = load i32, ptr %11, align 4, !tbaa !9
  %69 = sext i32 %68 to i64
  %70 = getelementptr inbounds %class.btVector3, ptr %67, i64 %69
  call void @llvm.memcpy.p0.p0.i64(ptr align 4 %70, ptr align 4 %14, i64 16, i1 false), !tbaa.struct !22
  call void @llvm.lifetime.end.p0(i64 16, ptr %14) #14
  %71 = load float, ptr %9, align 4, !tbaa !36
  %72 = load ptr, ptr %7, align 8, !tbaa !27
  %73 = load i32, ptr %11, align 4, !tbaa !9
  %74 = sext i32 %73 to i64
  %75 = getelementptr inbounds %class.btVector3, ptr %72, i64 %74
  %76 = call noundef ptr @_ZN9btVector3cvPfEv(ptr noundef nonnull align 4 dereferenceable(16) %75)
  %77 = getelementptr inbounds float, ptr %76, i64 3
  store float %71, ptr %77, align 4, !tbaa !36
  call void @llvm.lifetime.end.p0(i64 4, ptr %13) #14
  br label %85

78:                                               ; preds = %37
  %79 = load ptr, ptr %7, align 8, !tbaa !27
  %80 = load i32, ptr %11, align 4, !tbaa !9
  %81 = sext i32 %80 to i64
  %82 = getelementptr inbounds %class.btVector3, ptr %79, i64 %81
  %83 = call noundef ptr @_ZN9btVector3cvPfEv(ptr noundef nonnull align 4 dereferenceable(16) %82)
  %84 = getelementptr inbounds float, ptr %83, i64 3
  store float 0xC3ABC16D60000000, ptr %84, align 4, !tbaa !36
  br label %85

85:                                               ; preds = %78, %52
  call void @llvm.lifetime.end.p0(i64 16, ptr %12) #14
  br label %86

86:                                               ; preds = %85
  %87 = load i32, ptr %11, align 4, !tbaa !9
  %88 = add nsw i32 %87, 1
  store i32 %88, ptr %11, align 4, !tbaa !9
  br label %32, !llvm.loop !45

89:                                               ; preds = %36
  call void @llvm.lifetime.end.p0(i64 4, ptr %9) #14
  ret void
}